target datalayout = "e-m:e-p270:32:32-p271:32:32-p272:64:64-i64:64-i128:128-f80:128-n8:16:32:64-S128"
target triple = "x86_64-pc-linux-gnu"

%struct.___itt_global = type { [8 x i8], i64, i64, i64, i64, i64, i64, %union.pthread_mutex_t, ptr, ptr, ptr, ptr, ptr, ptr, ptr, ptr, i32, ptr, i32, ptr, ptr }
%union.pthread_mutex_t = type { %struct.__pthread_mutex_s }
%struct.__pthread_mutex_s = type { i32, i32, i32, i32, i32, i16, i16, %struct.__pthread_internal_list }
%struct.__pthread_internal_list = type { ptr, ptr }

@__itt_metadata_add_with_scope_ptr__3_0 = global ptr @_ZL38__itt_metadata_add_with_scope_init_3_0PK13___itt_domain11__itt_scopeP20___itt_string_handle19__itt_metadata_typemPv, align 8

; Function Attrs: mustprogress sspstrong uwtable
define internal void @_ZL38__itt_metadata_add_with_scope_init_3_0PK13___itt_domain11__itt_scopeP20___itt_string_handle19__itt_metadata_typemPv(ptr noundef %0, i32 noundef %1, ptr noundef %2, i32 noundef %3, i64 noundef %4, ptr noundef %5) #0 {
  %7 = alloca ptr, align 8
  %8 = alloca i32, align 4
  %9 = alloca ptr, align 8
  %10 = alloca i32, align 4
  %11 = alloca i64, align 8
  %12 = alloca ptr, align 8
  store ptr %0, ptr %7, align 8, !tbaa !32
  store i32 %1, ptr %8, align 4, !tbaa !39
  store ptr %2, ptr %9, align 8, !tbaa !36
  store i32 %3, ptr %10, align 4, !tbaa !41
  store i64 %4, ptr %11, align 8, !tbaa !28
  store ptr %5, ptr %12, align 8, !tbaa !22
  %13 = load volatile i64, ptr getelementptr inbounds nuw (%struct.___itt_global, ptr @__itt__ittapi_global, i32 0, i32 4), align 8, !tbaa !3
  %14 = icmp ne i64 %13, 0
  br i1 %14, label %19, label %15

15:                                               ; preds = %6
  %16 = load ptr, ptr getelementptr inbounds nuw (%struct.___itt_global, ptr @__itt__ittapi_global, i32 0, i32 13), align 8, !tbaa !21
  %17 = icmp eq ptr %16, null
  br i1 %17, label %18, label %19

18:                                               ; preds = %15
  call void @ITT_DoOneTimeInitialization()
  br label %19

19:                                               ; preds = %18, %15, %6
  %20 = load ptr, ptr @__itt_metadata_add_with_scope_ptr__3_0, align 8, !tbaa !22
  %21 = icmp ne ptr %20, null
  br i1 %21, label %22, label %33

22:                                               ; preds = %19
  %23 = load ptr, ptr @__itt_metadata_add_with_scope_ptr__3_0, align 8, !tbaa !22
  %24 = icmp ne ptr %23, @_ZL38__itt_metadata_add_with_scope_init_3_0PK13___itt_domain11__itt_scopeP20___itt_string_handle19__itt_metadata_typemPv
  br i1 %24, label %25, label %33

25:                                               ; preds = %22
  %26 = load ptr, ptr @__itt_metadata_add_with_scope_ptr__3_0, align 8, !tbaa !22
  %27 = load ptr, ptr %7, align 8, !tbaa !32
  %28 = load i32, ptr %8, align 4, !tbaa !39
  %29 = load ptr, ptr %9, align 8, !tbaa !36
  %30 = load i32, ptr %10, align 4, !tbaa !41
  %31 = load i64, ptr %11, align 8, !tbaa !28
  %32 = load ptr, ptr %12, align 8, !tbaa !22
  call void %26(ptr noundef %27, i32 noundef %28, ptr noundef %29, i32 noundef %30, i64 noundef %31, ptr noundef %32)
  br label %34

33:                                               ; preds = %22, %19
  br label %34

34:                                               ; preds = %33, %25
  ret void
}